target datalayout = "e-m:e-p270:32:32-p271:32:32-p272:64:64-i64:64-i128:128-f80:128-n8:16:32:64-S128"
target triple = "x86_64-pc-linux-gnu"

; Function Attrs: mustprogress nounwind uwtable
define linkonce_odr hidden noundef zeroext i1 @_ZN4llvm14has_single_bitImvEEbT_(i64 noundef %0) #0 comdat {
  %2 = alloca i64, align 8
  store i64 %0, ptr %2, align 8
  %3 = load i64, ptr %2, align 8
  %4 = icmp ne i64 %3, 0
  br i1 %4, label %5, label %11

5:                                                ; preds = %1
  %6 = load i64, ptr %2, align 8
  %7 = load i64, ptr %2, align 8
  %8 = sub i64 %7, 1
  %9 = and i64 %6, %8
  %10 = icmp eq i64 %9, 0
  br label %11

11:                                               ; preds = %5, %1
  %12 = phi i1 [ false, %1 ], [ %10, %5 ]
  ret i1 %12
}

; Function Attrs: mustprogress nounwind uwtable
define linkonce_odr hidden noundef zeroext i1 @_ZN4llvm5isIntILj8EEEbl(i64 noundef %0) #0 comdat {
  %2 = alloca i64, align 8
  store i64 %0, ptr %2, align 8
  %3 = load i64, ptr %2, align 8
  %4 = trunc i64 %3 to i8
  %5 = sext i8 %4 to i64
  %6 = load i64, ptr %2, align 8
  %7 = icmp eq i64 %5, %6
  ret i1 %7
}

; Function Attrs: mustprogress nounwind uwtable
define linkonce_odr hidden noundef zeroext i1 @_ZN4llvm13isPowerOf2_64Em(i64 noundef %0) #0 comdat {
  %2 = alloca i64, align 8
  store i64 %0, ptr %2, align 8
  %3 = load i64, ptr %2, align 8
  %4 = call noundef zeroext i1 @_ZN4llvm14has_single_bitImvEEbT_(i64 noundef %3) #15
  ret i1 %4
}

; Function Attrs: mustprogress nounwind uwtable
define linkonce_odr hidden noundef zeroext i1 @_ZN4llvm5isIntILj32EEEbl(i64 noundef %0) #0 comdat {
  %2 = alloca i64, align 8
  store i64 %0, ptr %2, align 8
  %3 = load i64, ptr %2, align 8
  %4 = trunc i64 %3 to i32
  %5 = sext i32 %4 to i64
  %6 = load i64, ptr %2, align 8
  %7 = icmp eq i64 %5, %6
  ret i1 %7
}

; Function Attrs: mustprogress nounwind uwtable
define linkonce_odr hidden noundef zeroext i1 @_ZN4llvm6isUIntILj32EEEbm(i64 noundef %0) #0 comdat {
  %2 = alloca i64, align 8
  store i64 %0, ptr %2, align 8
  %3 = load i64, ptr %2, align 8
  %4 = trunc i64 %3 to i32
  %5 = zext i32 %4 to i64
  %6 = load i64, ptr %2, align 8
  %7 = icmp eq i64 %5, %6
  ret i1 %7
}

; Function Attrs: mustprogress nounwind uwtable
define linkonce_odr hidden noundef zeroext i1 @_ZN4llvm9isMask_64Em(i64 noundef %0) #0 comdat {
  %2 = alloca i64, align 8
  store i64 %0, ptr %2, align 8
  %3 = load i64, ptr %2, align 8
  %4 = icmp ne i64 %3, 0
  br i1 %4, label %5, label %11

5:                                                ; preds = %1
  %6 = load i64, ptr %2, align 8
  %7 = add i64 %6, 1
  %8 = load i64, ptr %2, align 8
  %9 = and i64 %7, %8
  %10 = icmp eq i64 %9, 0
  br label %11

11:                                               ; preds = %5, %1
  %12 = phi i1 [ false, %1 ], [ %10, %5 ]
  ret i1 %12
}

; Function Attrs: mustprogress nounwind uwtable
define internal noundef zeroext i1 @_ZNK12_GLOBAL__N_122X86InstructionSelector20testImmPredicate_I64Ejl(ptr noundef nonnull align 8 dereferenceable(1400) %0, i32 noundef %1, i64 noundef %2) unnamed_addr #0 align 2 {
  %4 = alloca i1, align 1
  %5 = alloca ptr, align 8
  %6 = alloca i32, align 4
  %7 = alloca i64, align 8
  store ptr %0, ptr %5, align 8
  store i32 %1, ptr %6, align 4
  store i64 %2, ptr %7, align 8
  %8 = load i32, ptr %6, align 4
  switch i32 %8, label %74 [
    i32 1, label %9
    i32 2, label %18
    i32 3, label %26
    i32 4, label %38
    i32 5, label %41
    i32 6, label %44
    i32 7, label %47
    i32 8, label %50
    i32 9, label %53
    i32 10, label %63
    i32 11, label %66
  ]

9:                                                ; preds = %3
  %10 = load i64, ptr %7, align 8
  %11 = call noundef zeroext i1 @_ZN4llvm9isMask_64Em(i64 noundef %10)
  br i1 %11, label %12, label %16

12:                                               ; preds = %9
  %13 = load i64, ptr %7, align 8
  %14 = call noundef zeroext i1 @_ZN4llvm6isUIntILj32EEEbm(i64 noundef %13)
  %15 = xor i1 %14, true
  br label %16

16:                                               ; preds = %12, %9
  %17 = phi i1 [ false, %9 ], [ %15, %12 ]
  store i1 %17, ptr %4, align 1
  br label %75

18:                                               ; preds = %3
  %19 = load i64, ptr %7, align 8
  %20 = call noundef zeroext i1 @_ZN4llvm5isIntILj32EEEbl(i64 noundef %19)
  br i1 %20, label %24, label %21

21:                                               ; preds = %18
  %22 = load i64, ptr %7, align 8
  %23 = call noundef zeroext i1 @_ZN4llvm13isPowerOf2_64Em(i64 noundef %22)
  br label %24

24:                                               ; preds = %21, %18
  %25 = phi i1 [ false, %18 ], [ %23, %21 ]
  store i1 %25, ptr %4, align 1
  br label %75

26:                                               ; preds = %3
  %27 = load i64, ptr %7, align 8
  %28 = call noundef zeroext i1 @_ZN4llvm6isUIntILj32EEEbm(i64 noundef %27)
  br i1 %28, label %36, label %29

29:                                               ; preds = %26
  %30 = load i64, ptr %7, align 8
  %31 = call noundef zeroext i1 @_ZN4llvm5isIntILj32EEEbl(i64 noundef %30)
  br i1 %31, label %36, label %32

32:                                               ; preds = %29
  %33 = load i64, ptr %7, align 8
  %34 = xor i64 %33, -1
  %35 = call noundef zeroext i1 @_ZN4llvm13isPowerOf2_64Em(i64 noundef %34)
  br label %36

36:                                               ; preds = %32, %29, %26
  %37 = phi i1 [ false, %29 ], [ false, %26 ], [ %35, %32 ]
  store i1 %37, ptr %4, align 1
  br label %75

38:                                               ; preds = %3
  %39 = load i64, ptr %7, align 8
  %40 = call noundef zeroext i1 @_ZN4llvm5isIntILj8EEEbl(i64 noundef %39)
  store i1 %40, ptr %4, align 1
  br label %75

41:                                               ; preds = %3
  %42 = load i64, ptr %7, align 8
  %43 = call noundef zeroext i1 @_ZN4llvm5isIntILj8EEEbl(i64 noundef %42)
  store i1 %43, ptr %4, align 1
  br label %75

44:                                               ; preds = %3
  %45 = load i64, ptr %7, align 8
  %46 = call noundef zeroext i1 @_ZN4llvm5isIntILj8EEEbl(i64 noundef %45)
  store i1 %46, ptr %4, align 1
  br label %75

47:                                               ; preds = %3
  %48 = load i64, ptr %7, align 8
  %49 = call noundef zeroext i1 @_ZN4llvm5isIntILj32EEEbl(i64 noundef %48)
  store i1 %49, ptr %4, align 1
  br label %75

50:                                               ; preds = %3
  %51 = load i64, ptr %7, align 8
  %52 = call noundef zeroext i1 @_ZN4llvm6isUIntILj32EEEbm(i64 noundef %51)
  store i1 %52, ptr %4, align 1
  br label %75

53:                                               ; preds = %3
  %54 = load i64, ptr %7, align 8
  %55 = call noundef zeroext i1 @_ZN4llvm6isUIntILj32EEEbm(i64 noundef %54)
  br i1 %55, label %56, label %61

56:                                               ; preds = %53
  %57 = load i64, ptr %7, align 8
  %58 = trunc i64 %57 to i32
  %59 = sext i32 %58 to i64
  %60 = call noundef zeroext i1 @_ZN4llvm5isIntILj8EEEbl(i64 noundef %59)
  br label %61

61:                                               ; preds = %56, %53
  %62 = phi i1 [ false, %53 ], [ %60, %56 ]
  store i1 %62, ptr %4, align 1
  br label %75

63:                                               ; preds = %3
  %64 = load i64, ptr %7, align 8
  %65 = call noundef zeroext i1 @_ZN4llvm5isIntILj32EEEbl(i64 noundef %64)
  store i1 %65, ptr %4, align 1
  br label %75

66:                                               ; preds = %3
  %67 = load i64, ptr %7, align 8
  %68 = icmp sge i64 %67, 65280
  br i1 %68, label %69, label %72

69:                                               ; preds = %66
  %70 = load i64, ptr %7, align 8
  %71 = icmp sle i64 %70, 65535
  br label %72

72:                                               ; preds = %69, %66
  %73 = phi i1 [ false, %66 ], [ %71, %69 ]
  store i1 %73, ptr %4, align 1
  br label %75

74:                                               ; preds = %3
  unreachable

75:                                               ; preds = %72, %63, %61, %50, %47, %44, %41, %38, %36, %24, %16
  %76 = load i1, ptr %4, align 1
  ret i1 %76
}