; Function Attrs: mustprogress nofree norecurse nosync nounwind willreturn memory(none) uwtable
define internal noundef zeroext i1 @_ZNK12_GLOBAL__N_122X86InstructionSelector20testImmPredicate_I64Ejl(ptr nonnull readnone align 8 captures(none) %0, i32 noundef %1, i64 noundef %2) unnamed_addr #4 align 2 {
  switch i32 %1, label %45 [
    i32 1, label %4
    i32 2, label %9
    i32 3, label %14
    i32 4, label %19
    i32 5, label %22
    i32 6, label %25
    i32 7, label %28
    i32 8, label %31
    i32 9, label %33
    i32 10, label %39
    i32 11, label %42
  ]

4:                                                ; preds = %3
  %5 = add i64 %2, 1
  %6 = and i64 %5, %2
  %7 = icmp eq i64 %6, 0
  %8 = icmp ugt i64 %2, 4294967295
  %spec.select = and i1 %8, %7
  br label %_ZN4llvm13isPowerOf2_64Em.exit19

9:                                                ; preds = %3
  %10 = add i64 %2, 2147483648
  %11 = icmp ult i64 %10, 4294967296
  br i1 %11, label %_ZN4llvm13isPowerOf2_64Em.exit19, label %_ZN4llvm13isPowerOf2_64Em.exit

_ZN4llvm13isPowerOf2_64Em.exit:                   ; preds = %9
  %12 = tail call range(i64 1, 65) i64 @llvm.ctpop.i64(i64 %2)
  %13 = icmp samesign ult i64 %12, 2
  br label %_ZN4llvm13isPowerOf2_64Em.exit19

14:                                               ; preds = %3
  %15 = add i64 %2, 2147483648
  %or.cond = icmp ult i64 %15, 6442450944
  br i1 %or.cond, label %_ZN4llvm13isPowerOf2_64Em.exit19, label %16

16:                                               ; preds = %14
  %17 = tail call range(i64 0, 65) i64 @llvm.ctpop.i64(i64 %2)
  %18 = icmp samesign ugt i64 %17, 62
  br label %_ZN4llvm13isPowerOf2_64Em.exit19

19:                                               ; preds = %3
  %20 = add i64 %2, 128
  %21 = icmp ult i64 %20, 256
  br label %_ZN4llvm13isPowerOf2_64Em.exit19

22:                                               ; preds = %3
  %23 = add i64 %2, 128
  %24 = icmp ult i64 %23, 256
  br label %_ZN4llvm13isPowerOf2_64Em.exit19

25:                                               ; preds = %3
  %26 = add i64 %2, 128
  %27 = icmp ult i64 %26, 256
  br label %_ZN4llvm13isPowerOf2_64Em.exit19

28:                                               ; preds = %3
  %29 = add i64 %2, 2147483648
  %30 = icmp ult i64 %29, 4294967296
  br label %_ZN4llvm13isPowerOf2_64Em.exit19

31:                                               ; preds = %3
  %32 = icmp ult i64 %2, 4294967296
  br label %_ZN4llvm13isPowerOf2_64Em.exit19

33:                                               ; preds = %3
  %34 = icmp ult i64 %2, 4294967296
  br i1 %34, label %35, label %_ZN4llvm13isPowerOf2_64Em.exit19

35:                                               ; preds = %33
  %sext = shl nuw i64 %2, 32
  %36 = ashr exact i64 %sext, 32
  %37 = add nsw i64 %36, 128
  %38 = icmp ult i64 %37, 256
  br label %_ZN4llvm13isPowerOf2_64Em.exit19

39:                                               ; preds = %3
  %40 = add i64 %2, 2147483648
  %41 = icmp ult i64 %40, 4294967296
  br label %_ZN4llvm13isPowerOf2_64Em.exit19

42:                                               ; preds = %3
  %43 = and i64 %2, -256
  %44 = icmp eq i64 %43, 65280
  br label %_ZN4llvm13isPowerOf2_64Em.exit19

45:                                               ; preds = %3
  unreachable

_ZN4llvm13isPowerOf2_64Em.exit19:                 ; preds = %4, %16, %33, %35, %14, %9, %_ZN4llvm13isPowerOf2_64Em.exit, %42, %39, %31, %28, %25, %22, %19
  %.0 = phi i1 [ %44, %42 ], [ %41, %39 ], [ %32, %31 ], [ %30, %28 ], [ %27, %25 ], [ %24, %22 ], [ %21, %19 ], [ false, %9 ], [ %13, %_ZN4llvm13isPowerOf2_64Em.exit ], [ false, %14 ], [ false, %33 ], [ %38, %35 ], [ %18, %16 ], [ %spec.select, %4 ]
  ret i1 %.0
}